target datalayout = "e-m:e-p270:32:32-p271:32:32-p272:64:64-i64:64-i128:128-f80:128-n8:16:32:64-S128"
target triple = "x86_64-pc-linux-gnu"

%struct.expert_field = type { i32, i32 }
%struct._packet_info = type { ptr, ptr, i32, i32, %struct.nstime_t, %struct.nstime_t, %struct.nstime_t, i8, ptr, ptr, ptr, ptr, %struct._address, %struct._address, %struct._address, %struct._address, %struct._address, %struct._address, i32, ptr, i8, [3 x i8], %struct.anon, i32, i32, i32, i32, ptr, i8, ptr, ptr, i16, i16, i32, i32, i16, i32, i32, ptr, ptr, ptr, i8, i8, i16, i16, i16, i32, i16, i16, ptr, ptr, ptr, ptr, ptr, i32, i32 }
%struct.nstime_t = type { i64, i32 }
%struct._address = type { i32, i32, ptr, ptr }
%struct.anon = type { i8, [3 x i8] }

@hf_1722_lin_pad = internal global i32 0, align 4
@hf_1722_lin_mtv = internal global i32 0, align 4
@hf_1722_lin_bus_id = internal global i32 0, align 4
@hf_1722_lin_identifier = internal global i32 0, align 4
@hf_1722_lin_message_timestamp = internal global i32 0, align 4
@hf_1722_lin_padding = internal global i32 0, align 4
@ett_1722_lin = internal global i32 0, align 4
@ett_1722_lin_flags = internal global i32 0, align 4
@ei_1722_lin_header_cropped = internal global %struct.expert_field zeroinitializer, align 4
@ei_1722_lin_invalid_payload_length = internal global %struct.expert_field zeroinitializer, align 4
@proto_1722_acf_lin = internal global i32 0, align 4
@avb1722_acf_lin_dissector_table = internal global ptr null, align 8
@.str.434 = private unnamed_addr constant [16 x i8] c"Flags and BusID\00", align 1
@.str.435 = private unnamed_addr constant [28 x i8] c": pad=%u, mtv=%u, bus_id=%u\00", align 1
@.str.436 = private unnamed_addr constant [8 x i8] c"ACF-LIN\00", align 1
@.str.437 = private unnamed_addr constant [23 x i8] c"ACF-LIN(%u): 0x%02x   \00", align 1
@.str.438 = private unnamed_addr constant [23 x i8] c": bus_id=%u, id=0x%02X\00", align 1

; Function Attrs: null_pointer_is_valid sspstrong uwtable
define internal void @describe_lin_message(ptr noundef %0, i32 noundef %1, i32 noundef %2) #0 {
  %4 = alloca ptr, align 8
  %5 = alloca i32, align 4
  %6 = alloca i32, align 4
  store ptr %0, ptr %4, align 8
  store i32 %1, ptr %5, align 4
  store i32 %2, ptr %6, align 4
  %7 = load ptr, ptr %4, align 8
  %8 = load i32, ptr %5, align 4
  %9 = load i32, ptr %6, align 4
  call void (ptr, ptr, ...) @proto_item_append_text(ptr noundef %7, ptr noundef @.str.438, i32 noundef %8, i32 noundef %9)
  ret void
}

; Function Attrs: null_pointer_is_valid sspstrong uwtable
define internal i32 @dissect_1722_acf_lin(ptr noundef %0, ptr noundef %1, ptr noundef %2, ptr noundef %3) #0 {
  %5 = alloca i32, align 4
  %6 = alloca ptr, align 8
  %7 = alloca ptr, align 8
  %8 = alloca ptr, align 8
  %9 = alloca ptr, align 8
  %10 = alloca ptr, align 8
  %11 = alloca ptr, align 8
  %12 = alloca ptr, align 8
  %13 = alloca ptr, align 8
  %14 = alloca i32, align 4
  %15 = alloca i32, align 4
  %16 = alloca i32, align 4
  %17 = alloca i8, align 1
  %18 = alloca i32, align 4
  %19 = alloca i32, align 4
  %20 = alloca i32, align 4
  %21 = alloca i32, align 4
  %22 = alloca ptr, align 8
  store ptr %0, ptr %6, align 8
  store ptr %1, ptr %7, align 8
  store ptr %2, ptr %8, align 8
  store ptr %3, ptr %9, align 8
  call void @llvm.lifetime.start.p0(i64 8, ptr %10) #9
  call void @llvm.lifetime.start.p0(i64 8, ptr %11) #9
  call void @llvm.lifetime.start.p0(i64 8, ptr %12) #9
  call void @llvm.lifetime.start.p0(i64 8, ptr %13) #9
  call void @llvm.lifetime.start.p0(i64 4, ptr %14) #9
  store i32 0, ptr %14, align 4
  call void @llvm.lifetime.start.p0(i64 4, ptr %15) #9
  %23 = load ptr, ptr %6, align 8
  %24 = call i32 @tvb_captured_length(ptr noundef %23)
  store i32 %24, ptr %15, align 4
  call void @llvm.lifetime.start.p0(i64 4, ptr %16) #9
  call void @llvm.lifetime.start.p0(i64 1, ptr %17) #9
  call void @llvm.lifetime.start.p0(i64 4, ptr %18) #9
  call void @llvm.lifetime.start.p0(i64 4, ptr %19) #9
  call void @llvm.lifetime.start.p0(i64 4, ptr %20) #9
  %25 = load ptr, ptr %8, align 8
  %26 = load i32, ptr @proto_1722_acf_lin, align 4
  %27 = load ptr, ptr %6, align 8
  %28 = load i32, ptr %14, align 4
  %29 = call ptr @proto_tree_add_item(ptr noundef %25, i32 noundef %26, ptr noundef %27, i32 noundef %28, i32 noundef -1, i32 noundef 0)
  store ptr %29, ptr %11, align 8
  %30 = load ptr, ptr %11, align 8
  %31 = load i32, ptr @ett_1722_lin, align 4
  %32 = call ptr @proto_item_add_subtree(ptr noundef %30, i32 noundef %31)
  store ptr %32, ptr %12, align 8
  %33 = load i32, ptr %15, align 4
  %34 = icmp ult i32 %33, 10
  br i1 %34, label %35, label %40

35:                                               ; preds = %4
  %36 = load ptr, ptr %7, align 8
  %37 = load ptr, ptr %11, align 8
  %38 = call ptr @expert_add_info(ptr noundef %36, ptr noundef %37, ptr noundef @ei_1722_lin_header_cropped)
  %39 = load i32, ptr %15, align 4
  store i32 %39, ptr %5, align 4
  store i32 1, ptr %21, align 4
  br label %167

40:                                               ; preds = %4
  %41 = load ptr, ptr %12, align 8
  %42 = load ptr, ptr %6, align 8
  %43 = load i32, ptr %14, align 4
  %44 = load i32, ptr @ett_1722_lin_flags, align 4
  %45 = call ptr @proto_tree_add_subtree(ptr noundef %41, ptr noundef %42, i32 noundef %43, i32 noundef 1, i32 noundef %44, ptr noundef %10, ptr noundef @.str.434)
  store ptr %45, ptr %13, align 8
  %46 = load ptr, ptr %13, align 8
  %47 = load i32, ptr @hf_1722_lin_pad, align 4
  %48 = load ptr, ptr %6, align 8
  %49 = load i32, ptr %14, align 4
  %50 = call ptr @proto_tree_add_item_ret_uint(ptr noundef %46, i32 noundef %47, ptr noundef %48, i32 noundef %49, i32 noundef 1, i32 noundef 0, ptr noundef %16)
  %51 = load ptr, ptr %13, align 8
  %52 = load i32, ptr @hf_1722_lin_mtv, align 4
  %53 = load ptr, ptr %6, align 8
  %54 = load i32, ptr %14, align 4
  %55 = call ptr @proto_tree_add_item_ret_boolean(ptr noundef %51, i32 noundef %52, ptr noundef %53, i32 noundef %54, i32 noundef 1, i32 noundef 0, ptr noundef %17)
  %56 = load ptr, ptr %13, align 8
  %57 = load i32, ptr @hf_1722_lin_bus_id, align 4
  %58 = load ptr, ptr %6, align 8
  %59 = load i32, ptr %14, align 4
  %60 = call ptr @proto_tree_add_item_ret_uint(ptr noundef %56, i32 noundef %57, ptr noundef %58, i32 noundef %59, i32 noundef 1, i32 noundef 0, ptr noundef %18)
  %61 = load ptr, ptr %10, align 8
  %62 = load i32, ptr %16, align 4
  %63 = load i8, ptr %17, align 1, !range !15, !noundef !16
  %64 = trunc i8 %63 to i1
  %65 = zext i1 %64 to i32
  %66 = load i32, ptr %18, align 4
  call void (ptr, ptr, ...) @proto_item_append_text(ptr noundef %61, ptr noundef @.str.435, i32 noundef %62, i32 noundef %65, i32 noundef %66)
  %67 = load i32, ptr %14, align 4
  %68 = add i32 %67, 1
  store i32 %68, ptr %14, align 4
  %69 = load ptr, ptr %12, align 8
  %70 = load i32, ptr @hf_1722_lin_identifier, align 4
  %71 = load ptr, ptr %6, align 8
  %72 = load i32, ptr %14, align 4
  %73 = call ptr @proto_tree_add_item_ret_uint(ptr noundef %69, i32 noundef %70, ptr noundef %71, i32 noundef %72, i32 noundef 1, i32 noundef 0, ptr noundef %19)
  %74 = load i32, ptr %14, align 4
  %75 = add i32 %74, 1
  store i32 %75, ptr %14, align 4
  %76 = load ptr, ptr %12, align 8
  %77 = load i32, ptr @hf_1722_lin_message_timestamp, align 4
  %78 = load ptr, ptr %6, align 8
  %79 = load i32, ptr %14, align 4
  %80 = call ptr @proto_tree_add_item(ptr noundef %76, i32 noundef %77, ptr noundef %78, i32 noundef %79, i32 noundef 8, i32 noundef 0)
  %81 = load i32, ptr %14, align 4
  %82 = add i32 %81, 8
  store i32 %82, ptr %14, align 4
  %83 = load ptr, ptr %11, align 8
  %84 = load i32, ptr %18, align 4
  %85 = load i32, ptr %19, align 4
  call void @describe_lin_message(ptr noundef %83, i32 noundef %84, i32 noundef %85)
  %86 = load ptr, ptr %8, align 8
  %87 = call ptr @proto_tree_get_parent(ptr noundef %86)
  %88 = load i32, ptr %18, align 4
  %89 = load i32, ptr %19, align 4
  call void @describe_lin_message(ptr noundef %87, i32 noundef %88, i32 noundef %89)
  %90 = load ptr, ptr %7, align 8
  %91 = getelementptr inbounds nuw %struct._packet_info, ptr %90, i32 0, i32 1
  %92 = load ptr, ptr %91, align 8
  call void @col_set_str(ptr noundef %92, i32 noundef 35, ptr noundef @.str.436)
  %93 = load ptr, ptr %7, align 8
  %94 = getelementptr inbounds nuw %struct._packet_info, ptr %93, i32 0, i32 1
  %95 = load ptr, ptr %94, align 8
  call void @col_clear(ptr noundef %95, i32 noundef 25)
  %96 = load ptr, ptr %7, align 8
  %97 = getelementptr inbounds nuw %struct._packet_info, ptr %96, i32 0, i32 1
  %98 = load ptr, ptr %97, align 8
  %99 = load i32, ptr %18, align 4
  %100 = load i32, ptr %19, align 4
  call void (ptr, i32, ptr, ...) @col_add_fstr(ptr noundef %98, i32 noundef 25, ptr noundef @.str.437, i32 noundef %99, i32 noundef %100)
  %101 = load ptr, ptr %6, align 8
  %102 = load i32, ptr %14, align 4
  %103 = call i32 @tvb_reported_length_remaining(ptr noundef %101, i32 noundef %102)
  %104 = load i32, ptr %16, align 4
  %105 = sub i32 %103, %104
  store i32 %105, ptr %20, align 4
  %106 = load i32, ptr %20, align 4
  %107 = icmp slt i32 %106, 0
  br i1 %107, label %111, label %108

108:                                              ; preds = %40
  %109 = load i32, ptr %20, align 4
  %110 = icmp sgt i32 %109, 8
  br i1 %110, label %111, label %115

111:                                              ; preds = %108, %40
  %112 = load ptr, ptr %7, align 8
  %113 = load ptr, ptr %11, align 8
  %114 = call ptr @expert_add_info(ptr noundef %112, ptr noundef %113, ptr noundef @ei_1722_lin_invalid_payload_length)
  br label %149

115:                                              ; preds = %108
  %116 = load i32, ptr %20, align 4
  %117 = icmp sgt i32 %116, 0
  br i1 %117, label %118, label %148

118:                                              ; preds = %115
  call void @llvm.lifetime.start.p0(i64 8, ptr %22) #9
  %119 = load ptr, ptr %6, align 8
  %120 = load i32, ptr %14, align 4
  %121 = load i32, ptr %20, align 4
  %122 = call ptr @tvb_new_subset_length(ptr noundef %119, i32 noundef %120, i32 noundef %121)
  store ptr %122, ptr %22, align 8
  %123 = load ptr, ptr %7, align 8
  %124 = getelementptr inbounds nuw %struct._packet_info, ptr %123, i32 0, i32 1
  %125 = load ptr, ptr %124, align 8
  %126 = load ptr, ptr %7, align 8
  %127 = getelementptr inbounds nuw %struct._packet_info, ptr %126, i32 0, i32 51
  %128 = load ptr, ptr %127, align 8
  %129 = load ptr, ptr %6, align 8
  %130 = load i32, ptr %14, align 4
  %131 = load i32, ptr %20, align 4
  %132 = call ptr @tvb_bytes_to_str_punct(ptr noundef %128, ptr noundef %129, i32 noundef %130, i32 noundef %131, i8 noundef signext 32)
  call void @col_append_str(ptr noundef %125, i32 noundef 25, ptr noundef %132)
  %133 = load ptr, ptr @avb1722_acf_lin_dissector_table, align 8
  %134 = load ptr, ptr %22, align 8
  %135 = load ptr, ptr %7, align 8
  %136 = load ptr, ptr %8, align 8
  %137 = call i32 @dissector_try_payload_with_data(ptr noundef %133, ptr noundef %134, ptr noundef %135, ptr noundef %136, i1 noundef zeroext true, ptr noundef %19)
  %138 = icmp sle i32 %137, 0
  br i1 %138, label %139, label %144

139:                                              ; preds = %118
  %140 = load ptr, ptr %22, align 8
  %141 = load ptr, ptr %7, align 8
  %142 = load ptr, ptr %8, align 8
  %143 = call i32 @call_data_dissector(ptr noundef %140, ptr noundef %141, ptr noundef %142)
  br label %144

144:                                              ; preds = %139, %118
  %145 = load i32, ptr %20, align 4
  %146 = load i32, ptr %14, align 4
  %147 = add i32 %146, %145
  store i32 %147, ptr %14, align 4
  call void @llvm.lifetime.end.p0(i64 8, ptr %22) #9
  br label %148

148:                                              ; preds = %144, %115
  br label %149

149:                                              ; preds = %148, %111
  %150 = load i32, ptr %16, align 4
  %151 = icmp ugt i32 %150, 0
  br i1 %151, label %152, label %165

152:                                              ; preds = %149
  %153 = load ptr, ptr %6, align 8
  %154 = load i32, ptr %14, align 4
  %155 = call i32 @tvb_reported_length_remaining(ptr noundef %153, i32 noundef %154)
  %156 = load i32, ptr %16, align 4
  %157 = icmp sge i32 %155, %156
  br i1 %157, label %158, label %165

158:                                              ; preds = %152
  %159 = load ptr, ptr %12, align 8
  %160 = load i32, ptr @hf_1722_lin_padding, align 4
  %161 = load ptr, ptr %6, align 8
  %162 = load i32, ptr %14, align 4
  %163 = load i32, ptr %16, align 4
  %164 = call ptr @proto_tree_add_item(ptr noundef %159, i32 noundef %160, ptr noundef %161, i32 noundef %162, i32 noundef %163, i32 noundef 0)
  br label %165

165:                                              ; preds = %158, %152, %149
  %166 = load i32, ptr %15, align 4
  store i32 %166, ptr %5, align 4
  store i32 1, ptr %21, align 4
  br label %167

167:                                              ; preds = %165, %35
  call void @llvm.lifetime.end.p0(i64 4, ptr %20) #9
  call void @llvm.lifetime.end.p0(i64 4, ptr %19) #9
  call void @llvm.lifetime.end.p0(i64 4, ptr %18) #9
  call void @llvm.lifetime.end.p0(i64 1, ptr %17) #9
  call void @llvm.lifetime.end.p0(i64 4, ptr %16) #9
  call void @llvm.lifetime.end.p0(i64 4, ptr %15) #9
  call void @llvm.lifetime.end.p0(i64 4, ptr %14) #9
  call void @llvm.lifetime.end.p0(i64 8, ptr %13) #9
  call void @llvm.lifetime.end.p0(i64 8, ptr %12) #9
  call void @llvm.lifetime.end.p0(i64 8, ptr %11) #9
  call void @llvm.lifetime.end.p0(i64 8, ptr %10) #9
  %168 = load i32, ptr %5, align 4
  ret i32 %168
}