; Function Attrs: null_pointer_is_valid sspstrong uwtable
define internal i32 @dissect_1722_acf_lin(ptr noundef %0, ptr noundef %1, ptr noundef %2, ptr readnone captures(none) %3) #0 {
  %5 = alloca ptr, align 8
  %6 = alloca i32, align 4
  %7 = alloca i8, align 1
  %8 = alloca i32, align 4
  %9 = alloca i32, align 4
  call void @llvm.lifetime.start.p0(i64 8, ptr nonnull %5) #7
  %10 = tail call i32 @tvb_captured_length(ptr noundef %0)
  call void @llvm.lifetime.start.p0(i64 4, ptr nonnull %6) #7
  call void @llvm.lifetime.start.p0(i64 1, ptr nonnull %7) #7
  call void @llvm.lifetime.start.p0(i64 4, ptr nonnull %8) #7
  call void @llvm.lifetime.start.p0(i64 4, ptr nonnull %9) #7
  %11 = load i32, ptr @proto_1722_acf_lin, align 4
  %12 = tail call ptr @proto_tree_add_item(ptr noundef %2, i32 noundef %11, ptr noundef %0, i32 noundef 0, i32 noundef -1, i32 noundef 0)
  %13 = load i32, ptr @ett_1722_lin, align 4
  %14 = tail call ptr @proto_item_add_subtree(ptr noundef %12, i32 noundef %13)
  %15 = icmp ult i32 %10, 10
  br i1 %15, label %16, label %18

16:                                               ; preds = %4
  %17 = tail call ptr @expert_add_info(ptr noundef %1, ptr noundef %12, ptr noundef nonnull @ei_1722_lin_header_cropped)
  br label %74

18:                                               ; preds = %4
  %19 = load i32, ptr @ett_1722_lin_flags, align 4
  %20 = call ptr @proto_tree_add_subtree(ptr noundef %14, ptr noundef %0, i32 noundef 0, i32 noundef 1, i32 noundef %19, ptr noundef nonnull %5, ptr noundef nonnull @.str.434)
  %21 = load i32, ptr @hf_1722_lin_pad, align 4
  %22 = call ptr @proto_tree_add_item_ret_uint(ptr noundef %20, i32 noundef %21, ptr noundef %0, i32 noundef 0, i32 noundef 1, i32 noundef 0, ptr noundef nonnull %6)
  %23 = load i32, ptr @hf_1722_lin_mtv, align 4
  %24 = call ptr @proto_tree_add_item_ret_boolean(ptr noundef %20, i32 noundef %23, ptr noundef %0, i32 noundef 0, i32 noundef 1, i32 noundef 0, ptr noundef nonnull %7)
  %25 = load i32, ptr @hf_1722_lin_bus_id, align 4
  %26 = call ptr @proto_tree_add_item_ret_uint(ptr noundef %20, i32 noundef %25, ptr noundef %0, i32 noundef 0, i32 noundef 1, i32 noundef 0, ptr noundef nonnull %8)
  %27 = load ptr, ptr %5, align 8
  %28 = load i32, ptr %6, align 4
  %29 = load i8, ptr %7, align 1, !range !13, !noundef !14
  %30 = zext nneg i8 %29 to i32
  %31 = load i32, ptr %8, align 4
  call void (ptr, ptr, ...) @proto_item_append_text(ptr noundef %27, ptr noundef nonnull @.str.435, i32 noundef %28, i32 noundef %30, i32 noundef %31)
  %32 = load i32, ptr @hf_1722_lin_identifier, align 4
  %33 = call ptr @proto_tree_add_item_ret_uint(ptr noundef %14, i32 noundef %32, ptr noundef %0, i32 noundef 1, i32 noundef 1, i32 noundef 0, ptr noundef nonnull %9)
  %34 = load i32, ptr @hf_1722_lin_message_timestamp, align 4
  %35 = call ptr @proto_tree_add_item(ptr noundef %14, i32 noundef %34, ptr noundef %0, i32 noundef 2, i32 noundef 8, i32 noundef 0)
  %36 = load i32, ptr %8, align 4
  %37 = load i32, ptr %9, align 4
  call void (ptr, ptr, ...) @proto_item_append_text(ptr noundef %12, ptr noundef nonnull @.str.438, i32 noundef %36, i32 noundef %37)
  %38 = call ptr @proto_tree_get_parent(ptr noundef %2)
  %39 = load i32, ptr %8, align 4
  %40 = load i32, ptr %9, align 4
  call void (ptr, ptr, ...) @proto_item_append_text(ptr noundef %38, ptr noundef nonnull @.str.438, i32 noundef %39, i32 noundef %40)
  %41 = getelementptr inbounds nuw i8, ptr %1, i64 8
  %42 = load ptr, ptr %41, align 8
  call void @col_set_str(ptr noundef %42, i32 noundef 35, ptr noundef nonnull @.str.436)
  %43 = load ptr, ptr %41, align 8
  call void @col_clear(ptr noundef %43, i32 noundef 25)
  %44 = load ptr, ptr %41, align 8
  %45 = load i32, ptr %8, align 4
  %46 = load i32, ptr %9, align 4
  call void (ptr, i32, ptr, ...) @col_add_fstr(ptr noundef %44, i32 noundef 25, ptr noundef nonnull @.str.437, i32 noundef %45, i32 noundef %46)
  %47 = call i32 @tvb_reported_length_remaining(ptr noundef %0, i32 noundef 10)
  %48 = load i32, ptr %6, align 4
  %49 = sub i32 %47, %48
  %or.cond = icmp ugt i32 %49, 8
  br i1 %or.cond, label %50, label %52

50:                                               ; preds = %18
  %51 = call ptr @expert_add_info(ptr noundef %1, ptr noundef %12, ptr noundef nonnull @ei_1722_lin_invalid_payload_length)
  br label %thread-pre-split

52:                                               ; preds = %18
  %.not = icmp eq i32 %47, %48
  br i1 %.not, label %66, label %53

53:                                               ; preds = %52
  %54 = call ptr @tvb_new_subset_length(ptr noundef %0, i32 noundef 10, i32 noundef %49)
  %55 = load ptr, ptr %41, align 8
  %56 = getelementptr inbounds nuw i8, ptr %1, i64 408
  %57 = load ptr, ptr %56, align 8
  %58 = call ptr @tvb_bytes_to_str_punct(ptr noundef %57, ptr noundef %0, i32 noundef 10, i32 noundef %49, i8 noundef signext 32)
  call void @col_append_str(ptr noundef %55, i32 noundef 25, ptr noundef %58)
  %59 = load ptr, ptr @avb1722_acf_lin_dissector_table, align 8
  %60 = call i32 @dissector_try_payload_with_data(ptr noundef %59, ptr noundef %54, ptr noundef %1, ptr noundef %2, i1 noundef zeroext true, ptr noundef nonnull %9)
  %61 = icmp slt i32 %60, 1
  br i1 %61, label %62, label %64

62:                                               ; preds = %53
  %63 = call i32 @call_data_dissector(ptr noundef %54, ptr noundef %1, ptr noundef %2)
  br label %64

64:                                               ; preds = %62, %53
  %65 = add nuw nsw i32 %49, 10
  br label %thread-pre-split

thread-pre-split:                                 ; preds = %50, %64
  %.065.ph = phi i32 [ %65, %64 ], [ 10, %50 ]
  %.pr = load i32, ptr %6, align 4
  br label %66

66:                                               ; preds = %thread-pre-split, %52
  %67 = phi i32 [ %.pr, %thread-pre-split ], [ %47, %52 ]
  %.065 = phi i32 [ %.065.ph, %thread-pre-split ], [ 10, %52 ]
  %.not67 = icmp eq i32 %67, 0
  br i1 %.not67, label %74, label %68

68:                                               ; preds = %66
  %69 = call i32 @tvb_reported_length_remaining(ptr noundef %0, i32 noundef %.065)
  %70 = load i32, ptr %6, align 4
  %.not68 = icmp slt i32 %69, %70
  br i1 %.not68, label %74, label %71

71:                                               ; preds = %68
  %72 = load i32, ptr @hf_1722_lin_padding, align 4
  %73 = call ptr @proto_tree_add_item(ptr noundef %14, i32 noundef %72, ptr noundef %0, i32 noundef %.065, i32 noundef %70, i32 noundef 0)
  br label %74

74:                                               ; preds = %66, %68, %71, %16
  call void @llvm.lifetime.end.p0(i64 4, ptr nonnull %9) #7
  call void @llvm.lifetime.end.p0(i64 4, ptr nonnull %8) #7
  call void @llvm.lifetime.end.p0(i64 1, ptr nonnull %7) #7
  call void @llvm.lifetime.end.p0(i64 4, ptr nonnull %6) #7
  call void @llvm.lifetime.end.p0(i64 8, ptr nonnull %5) #7
  ret i32 %10
}